; Function Attrs: nounwind uwtable
define ptr @l___private_Lean_Server_Completion_CompletionCollectors_0__Lean_Server_Completion_stripPrivatePrefix(ptr noundef %0) local_unnamed_addr #0 {
  %2 = ptrtoint ptr %0 to i64
  %3 = and i64 %2, 1
  %.not.i = icmp ne i64 %3, 0
  br i1 %.not.i, label %lean_obj_tag.exit, label %lean_obj_tag.exit.thread

lean_obj_tag.exit:                                ; preds = %1
  %4 = and i64 %2, 8589934590
  %5 = icmp eq i64 %4, 4
  br i1 %5, label %8, label %lean_inc.exit15

lean_obj_tag.exit.thread:                         ; preds = %1
  %6 = getelementptr i8, ptr %0, i64 4
  %.val.i = load i32, ptr %6, align 4
  %.mask = and i32 %.val.i, -16777216
  %7 = icmp eq i32 %.mask, 33554432
  br i1 %7, label %8, label %.thread

8:                                                ; preds = %lean_obj_tag.exit.thread, %lean_obj_tag.exit
  %9 = getelementptr inbounds nuw i8, ptr %0, i64 16
  %10 = load ptr, ptr %9, align 8, !tbaa !4
  %11 = ptrtoint ptr %10 to i64
  %12 = and i64 %11, 1
  %.not = icmp eq i64 %12, 0
  br i1 %.not, label %lean_nat_eq.exit, label %13, !prof !14

13:                                               ; preds = %8
  %14 = icmp eq ptr %10, inttoptr (i64 1 to ptr)
  br i1 %14, label %23, label %16

lean_nat_eq.exit:                                 ; preds = %8
  %15 = tail call zeroext i1 @lean_nat_big_eq(ptr noundef %10, ptr noundef nonnull inttoptr (i64 1 to ptr)) #5
  br i1 %15, label %23, label %16

16:                                               ; preds = %13, %lean_nat_eq.exit
  br i1 %.not.i, label %lean_inc.exit15, label %17

17:                                               ; preds = %16
  %.val.i17 = load i32, ptr %0, align 4, !tbaa !8
  %18 = icmp sgt i32 %.val.i17, 0
  br i1 %18, label %19, label %21, !prof !11

19:                                               ; preds = %17
  %20 = add nuw i32 %.val.i17, 1
  store i32 %20, ptr %0, align 4, !tbaa !8
  br label %lean_inc.exit15

21:                                               ; preds = %17
  %.not.i18 = icmp eq i32 %.val.i17, 0
  br i1 %.not.i18, label %lean_inc.exit15, label %22

22:                                               ; preds = %21
  tail call void @lean_inc_ref_cold(ptr noundef nonnull %0) #5
  br label %lean_inc.exit15

23:                                               ; preds = %13, %lean_nat_eq.exit
  %24 = tail call zeroext i8 @l_Lean_isPrivatePrefix(ptr noundef nonnull %0) #5
  %25 = icmp ne i8 %24, 0
  %brmerge = or i1 %25, %.not.i
  %.mux = select i1 %25, ptr inttoptr (i64 1 to ptr), ptr %0
  br i1 %brmerge, label %lean_inc.exit15, label %26

26:                                               ; preds = %23
  %.val.i19 = load i32, ptr %0, align 4, !tbaa !8
  %27 = icmp sgt i32 %.val.i19, 0
  br i1 %27, label %28, label %30, !prof !11

28:                                               ; preds = %26
  %29 = add nuw i32 %.val.i19, 1
  store i32 %29, ptr %0, align 4, !tbaa !8
  br label %lean_inc.exit15

30:                                               ; preds = %26
  %.not.i20 = icmp eq i32 %.val.i19, 0
  br i1 %.not.i20, label %lean_inc.exit15, label %31

31:                                               ; preds = %30
  tail call void @lean_inc_ref_cold(ptr noundef nonnull %0) #5
  br label %lean_inc.exit15

.thread:                                          ; preds = %lean_obj_tag.exit.thread
  %.val.i22 = load i32, ptr %0, align 4, !tbaa !8
  %32 = icmp sgt i32 %.val.i22, 0
  br i1 %32, label %33, label %35, !prof !11

33:                                               ; preds = %.thread
  %34 = add nuw i32 %.val.i22, 1
  store i32 %34, ptr %0, align 4, !tbaa !8
  br label %lean_inc.exit15

35:                                               ; preds = %.thread
  %.not.i23 = icmp eq i32 %.val.i22, 0
  br i1 %.not.i23, label %lean_inc.exit15, label %36

36:                                               ; preds = %35
  tail call void @lean_inc_ref_cold(ptr noundef nonnull %0) #5
  br label %lean_inc.exit15

lean_inc.exit15:                                  ; preds = %23, %lean_obj_tag.exit, %33, %35, %36, %28, %30, %31, %16, %19, %21, %22
  %.2 = phi ptr [ %0, %22 ], [ %0, %21 ], [ %0, %19 ], [ %0, %16 ], [ %0, %31 ], [ %0, %30 ], [ %0, %28 ], [ %.mux, %23 ], [ %0, %36 ], [ %0, %35 ], [ %0, %33 ], [ %0, %lean_obj_tag.exit ]
  ret ptr %.2
}